target datalayout = "e-m:e-p270:32:32-p271:32:32-p272:64:64-i64:64-i128:128-f80:128-n8:16:32:64-S128"
target triple = "x86_64-unknown-linux-gnu"

%struct.BlockDriverState = type { i32, i8, i8, i8, i8, i8, ptr, ptr, ptr, %struct.anon, i8, [4096 x i8], [4096 x i8], [4096 x i8], [16 x i8], ptr, [4096 x i8], %struct.BlockLimits, i32, i32, i32, i32, [32 x i8], %union.anon, %union.anon.0, %union.anon.1, i32, [16 x %struct.anon.2], ptr, %struct.anon.3, ptr, ptr, %struct.anon.4, ptr, ptr, i32, ptr, i64, i64, %struct.QemuMutex, %struct.anon.5, %struct.Stat64, i32, i32, i32, i32, i32, i32, %struct.QemuMutex, %struct.anon.6, %struct.CoQueue, i8, i32, i8, %struct.CoMutex, ptr, ptr }
%struct.anon = type { ptr }
%struct.BlockLimits = type { i32, i64, i32, i64, i32, i32, i32, i64, i32, i64, i64, i32, i8, i32, i32, i32, i32, i32, i32, i32 }
%union.anon = type { %struct.QTailQLink }
%struct.QTailQLink = type { ptr, ptr }
%union.anon.0 = type { %struct.QTailQLink }
%union.anon.1 = type { %struct.QTailQLink }
%struct.anon.2 = type { ptr }
%struct.anon.3 = type { ptr }
%struct.anon.4 = type { ptr }
%struct.anon.5 = type { ptr }
%struct.Stat64 = type { i64 }
%struct.QemuMutex = type { %union.pthread_mutex_t, i8 }
%union.pthread_mutex_t = type { %struct.__pthread_mutex_s }
%struct.__pthread_mutex_s = type { i32, i32, i32, i32, i32, i16, i16, %struct.__pthread_internal_list }
%struct.__pthread_internal_list = type { ptr, ptr }
%struct.anon.6 = type { ptr }
%struct.CoQueue = type { %struct.anon.7 }
%struct.anon.7 = type { ptr, ptr }
%struct.CoMutex = type { i32, ptr, %struct.anon.8, %struct.anon.8, i32, i32, ptr }
%struct.anon.8 = type { ptr }
%struct.BDRVQcow2State = type { i32, i32, i32, i32, i32, i32, i32, i32, i32, i32, i32, i32, i32, i32, i64, i64, ptr, ptr, ptr, ptr, i32, %struct.anon.9, ptr, i64, i32, i32, i64, i64, %struct.CoMutex, %struct.Qcow2CryptoHeaderExtension, ptr, ptr, i8, i32, i64, i32, i32, ptr, i32, i64, i64, i32, i32, i8, i32, i32, i64, ptr, ptr, [5 x i8], i8, i32, i8, i64, i64, i64, i64, ptr, %struct.anon.10, %union.anon.11, i8, ptr, ptr, ptr, %struct.CoQueue, i32, ptr, i8, i8, i32 }
%struct.anon.9 = type { ptr }
%struct.Qcow2CryptoHeaderExtension = type { i64, i64 }
%struct.anon.10 = type { ptr }
%union.anon.11 = type { %struct.QTailQLink }
%struct.BdrvCheckResult = type { i32, i32, i32, i32, i32, i64, %struct.BlockFragInfo }
%struct.BlockFragInfo = type { i64, i64, i64, i64 }

@stderr = external global ptr, align 8
@.str.42 = private unnamed_addr constant [40 x i8] c"Can't get refcount for cluster %ld: %s\0A\00", align 1
@.str.71 = private unnamed_addr constant [10 x i8] c"Repairing\00", align 1
@.str.72 = private unnamed_addr constant [6 x i8] c"ERROR\00", align 1
@.str.86 = private unnamed_addr constant [43 x i8] c"%s cluster %ld refcount=%lu reference=%lu\0A\00", align 1
@.str.87 = private unnamed_addr constant [7 x i8] c"Leaked\00", align 1

; Function Attrs: nounwind sspstrong uwtable
define internal i64 @refcount_diff(i64 noundef %r1, i64 noundef %r2) #0 {
entry:
  %r1.addr = alloca i64, align 8
  %r2.addr = alloca i64, align 8
  store i64 %r1, ptr %r1.addr, align 8
  store i64 %r2, ptr %r2.addr, align 8
  %0 = load i64, ptr %r1.addr, align 8
  %1 = load i64, ptr %r2.addr, align 8
  %cmp = icmp ugt i64 %0, %1
  br i1 %cmp, label %cond.true, label %cond.false

cond.true:                                        ; preds = %entry
  %2 = load i64, ptr %r1.addr, align 8
  %3 = load i64, ptr %r2.addr, align 8
  %sub = sub i64 %2, %3
  br label %cond.end

cond.false:                                       ; preds = %entry
  %4 = load i64, ptr %r2.addr, align 8
  %5 = load i64, ptr %r1.addr, align 8
  %sub1 = sub i64 %4, %5
  br label %cond.end

cond.end:                                         ; preds = %cond.false, %cond.true
  %cond = phi i64 [ %sub, %cond.true ], [ %sub1, %cond.false ]
  ret i64 %cond
}

; Function Attrs: nounwind sspstrong uwtable
define internal void @compare_refcounts(ptr noundef %bs, ptr noundef %res, i32 noundef %fix, ptr noundef %rebuild, ptr noundef %highest_cluster, ptr noundef %refcount_table, i64 noundef %nb_clusters) #0 {
entry:
  %bs.addr = alloca ptr, align 8
  %res.addr = alloca ptr, align 8
  %fix.addr = alloca i32, align 4
  %rebuild.addr = alloca ptr, align 8
  %highest_cluster.addr = alloca ptr, align 8
  %refcount_table.addr = alloca ptr, align 8
  %nb_clusters.addr = alloca i64, align 8
  %s = alloca ptr, align 8
  %i = alloca i64, align 8
  %refcount1 = alloca i64, align 8
  %refcount2 = alloca i64, align 8
  %ret = alloca i32, align 4
  %num_fixed = alloca ptr, align 8
  store ptr %bs, ptr %bs.addr, align 8
  store ptr %res, ptr %res.addr, align 8
  store i32 %fix, ptr %fix.addr, align 4
  store ptr %rebuild, ptr %rebuild.addr, align 8
  store ptr %highest_cluster, ptr %highest_cluster.addr, align 8
  store ptr %refcount_table, ptr %refcount_table.addr, align 8
  store i64 %nb_clusters, ptr %nb_clusters.addr, align 8
  %0 = load ptr, ptr %bs.addr, align 8
  %opaque = getelementptr inbounds %struct.BlockDriverState, ptr %0, i32 0, i32 7
  %1 = load ptr, ptr %opaque, align 8
  store ptr %1, ptr %s, align 8
  store i64 0, ptr %i, align 8
  %2 = load ptr, ptr %highest_cluster.addr, align 8
  store i64 0, ptr %2, align 8
  br label %for.cond

for.cond:                                         ; preds = %for.inc, %entry
  %3 = load i64, ptr %i, align 8
  %4 = load i64, ptr %nb_clusters.addr, align 8
  %cmp = icmp slt i64 %3, %4
  br i1 %cmp, label %for.body, label %for.end

for.body:                                         ; preds = %for.cond
  %5 = load ptr, ptr %bs.addr, align 8
  %6 = load i64, ptr %i, align 8
  %call = call i32 @qcow2_get_refcount(ptr noundef %5, i64 noundef %6, ptr noundef %refcount1)
  store i32 %call, ptr %ret, align 4
  %7 = load i32, ptr %ret, align 4
  %cmp1 = icmp slt i32 %7, 0
  br i1 %cmp1, label %if.then, label %if.end

if.then:                                          ; preds = %for.body
  %8 = load ptr, ptr @stderr, align 8
  %9 = load i64, ptr %i, align 8
  %10 = load i32, ptr %ret, align 4
  %sub = sub i32 0, %10
  %call2 = call ptr @strerror(i32 noundef %sub) #13
  %call3 = call i32 (ptr, ptr, ...) @fprintf(ptr noundef %8, ptr noundef @.str.42, i64 noundef %9, ptr noundef %call2)
  %11 = load ptr, ptr %res.addr, align 8
  %check_errors = getelementptr inbounds %struct.BdrvCheckResult, ptr %11, i32 0, i32 2
  %12 = load i32, ptr %check_errors, align 8
  %inc = add i32 %12, 1
  store i32 %inc, ptr %check_errors, align 8
  br label %for.inc

if.end:                                           ; preds = %for.body
  %13 = load ptr, ptr %s, align 8
  %get_refcount = getelementptr inbounds %struct.BDRVQcow2State, ptr %13, i32 0, i32 47
  %14 = load ptr, ptr %get_refcount, align 8
  %15 = load ptr, ptr %refcount_table.addr, align 8
  %16 = load i64, ptr %i, align 8
  %call4 = call i64 %14(ptr noundef %15, i64 noundef %16)
  store i64 %call4, ptr %refcount2, align 8
  %17 = load i64, ptr %refcount1, align 8
  %cmp5 = icmp ugt i64 %17, 0
  br i1 %cmp5, label %if.then7, label %lor.lhs.false

lor.lhs.false:                                    ; preds = %if.end
  %18 = load i64, ptr %refcount2, align 8
  %cmp6 = icmp ugt i64 %18, 0
  br i1 %cmp6, label %if.then7, label %if.end8

if.then7:                                         ; preds = %lor.lhs.false, %if.end
  %19 = load i64, ptr %i, align 8
  %20 = load ptr, ptr %highest_cluster.addr, align 8
  store i64 %19, ptr %20, align 8
  br label %if.end8

if.end8:                                          ; preds = %if.then7, %lor.lhs.false
  %21 = load i64, ptr %refcount1, align 8
  %22 = load i64, ptr %refcount2, align 8
  %cmp9 = icmp ne i64 %21, %22
  br i1 %cmp9, label %if.then10, label %if.end44

if.then10:                                        ; preds = %if.end8
  store ptr null, ptr %num_fixed, align 8
  %23 = load i64, ptr %refcount1, align 8
  %cmp11 = icmp eq i64 %23, 0
  br i1 %cmp11, label %if.then12, label %if.else

if.then12:                                        ; preds = %if.then10
  %24 = load ptr, ptr %rebuild.addr, align 8
  store i8 1, ptr %24, align 1
  br label %if.end23

if.else:                                          ; preds = %if.then10
  %25 = load i64, ptr %refcount1, align 8
  %26 = load i64, ptr %refcount2, align 8
  %cmp13 = icmp ugt i64 %25, %26
  br i1 %cmp13, label %land.lhs.true, label %if.else15

land.lhs.true:                                    ; preds = %if.else
  %27 = load i32, ptr %fix.addr, align 4
  %and = and i32 %27, 1
  %tobool = icmp ne i32 %and, 0
  br i1 %tobool, label %if.then14, label %if.else15

if.then14:                                        ; preds = %land.lhs.true
  %28 = load ptr, ptr %res.addr, align 8
  %leaks_fixed = getelementptr inbounds %struct.BdrvCheckResult, ptr %28, i32 0, i32 4
  store ptr %leaks_fixed, ptr %num_fixed, align 8
  br label %if.end22

if.else15:                                        ; preds = %land.lhs.true, %if.else
  %29 = load i64, ptr %refcount1, align 8
  %30 = load i64, ptr %refcount2, align 8
  %cmp16 = icmp ult i64 %29, %30
  br i1 %cmp16, label %land.lhs.true17, label %if.end21

land.lhs.true17:                                  ; preds = %if.else15
  %31 = load i32, ptr %fix.addr, align 4
  %and18 = and i32 %31, 2
  %tobool19 = icmp ne i32 %and18, 0
  br i1 %tobool19, label %if.then20, label %if.end21

if.then20:                                        ; preds = %land.lhs.true17
  %32 = load ptr, ptr %res.addr, align 8
  %corruptions_fixed = getelementptr inbounds %struct.BdrvCheckResult, ptr %32, i32 0, i32 3
  store ptr %corruptions_fixed, ptr %num_fixed, align 8
  br label %if.end21

if.end21:                                         ; preds = %if.then20, %land.lhs.true17, %if.else15
  br label %if.end22

if.end22:                                         ; preds = %if.end21, %if.then14
  br label %if.end23

if.end23:                                         ; preds = %if.end22, %if.then12
  %33 = load ptr, ptr @stderr, align 8
  %34 = load ptr, ptr %num_fixed, align 8
  %cmp24 = icmp ne ptr %34, null
  br i1 %cmp24, label %cond.true, label %cond.false

cond.true:                                        ; preds = %if.end23
  br label %cond.end

cond.false:                                       ; preds = %if.end23
  %35 = load i64, ptr %refcount1, align 8
  %36 = load i64, ptr %refcount2, align 8
  %cmp25 = icmp ult i64 %35, %36
  %cond = select i1 %cmp25, ptr @.str.72, ptr @.str.87
  br label %cond.end

cond.end:                                         ; preds = %cond.false, %cond.true
  %cond26 = phi ptr [ @.str.71, %cond.true ], [ %cond, %cond.false ]
  %37 = load i64, ptr %i, align 8
  %38 = load i64, ptr %refcount1, align 8
  %39 = load i64, ptr %refcount2, align 8
  %call27 = call i32 (ptr, ptr, ...) @fprintf(ptr noundef %33, ptr noundef @.str.86, ptr noundef %cond26, i64 noundef %37, i64 noundef %38, i64 noundef %39)
  %40 = load ptr, ptr %num_fixed, align 8
  %tobool28 = icmp ne ptr %40, null
  br i1 %tobool28, label %if.then29, label %if.end37

if.then29:                                        ; preds = %cond.end
  %41 = load ptr, ptr %bs.addr, align 8
  %42 = load i64, ptr %i, align 8
  %43 = load ptr, ptr %s, align 8
  %cluster_bits = getelementptr inbounds %struct.BDRVQcow2State, ptr %43, i32 0, i32 0
  %44 = load i32, ptr %cluster_bits, align 8
  %sh_prom = zext i32 %44 to i64
  %shl = shl i64 %42, %sh_prom
  %45 = load i64, ptr %refcount1, align 8
  %46 = load i64, ptr %refcount2, align 8
  %call30 = call i64 @refcount_diff(i64 noundef %45, i64 noundef %46)
  %47 = load i64, ptr %refcount1, align 8
  %48 = load i64, ptr %refcount2, align 8
  %cmp31 = icmp ugt i64 %47, %48
  %call32 = call i32 @update_refcount(ptr noundef %41, i64 noundef %shl, i64 noundef 1, i64 noundef %call30, i1 noundef zeroext %cmp31, i32 noundef 1)
  store i32 %call32, ptr %ret, align 4
  %49 = load i32, ptr %ret, align 4
  %cmp33 = icmp sge i32 %49, 0
  br i1 %cmp33, label %if.then34, label %if.end36

if.then34:                                        ; preds = %if.then29
  %50 = load ptr, ptr %num_fixed, align 8
  %51 = load i32, ptr %50, align 4
  %inc35 = add i32 %51, 1
  store i32 %inc35, ptr %50, align 4
  br label %for.inc

if.end36:                                         ; preds = %if.then29
  br label %if.end37

if.end37:                                         ; preds = %if.end36, %cond.end
  %52 = load i64, ptr %refcount1, align 8
  %53 = load i64, ptr %refcount2, align 8
  %cmp38 = icmp ult i64 %52, %53
  br i1 %cmp38, label %if.then39, label %if.else41

if.then39:                                        ; preds = %if.end37
  %54 = load ptr, ptr %res.addr, align 8
  %corruptions = getelementptr inbounds %struct.BdrvCheckResult, ptr %54, i32 0, i32 0
  %55 = load i32, ptr %corruptions, align 8
  %inc40 = add i32 %55, 1
  store i32 %inc40, ptr %corruptions, align 8
  br label %if.end43

if.else41:                                        ; preds = %if.end37
  %56 = load ptr, ptr %res.addr, align 8
  %leaks = getelementptr inbounds %struct.BdrvCheckResult, ptr %56, i32 0, i32 1
  %57 = load i32, ptr %leaks, align 4
  %inc42 = add i32 %57, 1
  store i32 %inc42, ptr %leaks, align 4
  br label %if.end43

if.end43:                                         ; preds = %if.else41, %if.then39
  br label %if.end44

if.end44:                                         ; preds = %if.end43, %if.end8
  br label %for.inc

for.inc:                                          ; preds = %if.end44, %if.then34, %if.then
  %58 = load i64, ptr %i, align 8
  %inc45 = add i64 %58, 1
  store i64 %inc45, ptr %i, align 8
  br label %for.cond, !llvm.loop !28

for.end:                                          ; preds = %for.cond
  ret void
}