; Function Attrs: nounwind sspstrong uwtable
define internal void @compare_refcounts(ptr noundef %bs, ptr noundef %res, i32 noundef %fix, ptr noundef writeonly captures(none) %rebuild, ptr noundef writeonly captures(none) initializes((0, 8)) %highest_cluster, ptr noundef %refcount_table, i64 noundef %nb_clusters) #0 {
entry:
  %refcount1 = alloca i64, align 8
  %opaque = getelementptr inbounds nuw i8, ptr %bs, i64 24
  %0 = load ptr, ptr %opaque, align 8
  store i64 0, ptr %highest_cluster, align 8
  %cmp34 = icmp sgt i64 %nb_clusters, 0
  br i1 %cmp34, label %for.body.lr.ph, label %for.end

for.body.lr.ph:                                   ; preds = %entry
  %get_refcount = getelementptr inbounds nuw i8, ptr %0, i64 328
  %and = and i32 %fix, 1
  %tobool.not = icmp eq i32 %and, 0
  %leaks_fixed = getelementptr inbounds nuw i8, ptr %res, i64 16
  %and18 = and i32 %fix, 2
  %tobool19.not = icmp eq i32 %and18, 0
  %corruptions_fixed = getelementptr inbounds nuw i8, ptr %res, i64 12
  %leaks = getelementptr inbounds nuw i8, ptr %res, i64 4
  %check_errors = getelementptr inbounds nuw i8, ptr %res, i64 8
  br label %for.body

for.body:                                         ; preds = %for.body.lr.ph, %for.inc
  %i.035 = phi i64 [ 0, %for.body.lr.ph ], [ %inc45, %for.inc ]
  %call = call i32 @qcow2_get_refcount(ptr noundef %bs, i64 noundef %i.035, ptr noundef nonnull %refcount1)
  %cmp1 = icmp slt i32 %call, 0
  br i1 %cmp1, label %if.then, label %if.end

if.then:                                          ; preds = %for.body
  %1 = load ptr, ptr @stderr, align 8
  %sub = sub i32 0, %call
  %call2 = tail call ptr @strerror(i32 noundef %sub) #17
  %call3 = tail call i32 (ptr, ptr, ...) @fprintf(ptr noundef %1, ptr noundef nonnull @.str.42, i64 noundef %i.035, ptr noundef %call2) #19
  %2 = load i32, ptr %check_errors, align 8
  %inc = add i32 %2, 1
  store i32 %inc, ptr %check_errors, align 8
  br label %for.inc

if.end:                                           ; preds = %for.body
  %3 = load ptr, ptr %get_refcount, align 8
  %call4 = tail call i64 %3(ptr noundef %refcount_table, i64 noundef %i.035) #17
  %4 = load i64, ptr %refcount1, align 8
  %cmp5 = icmp ne i64 %4, 0
  %cmp6 = icmp ne i64 %call4, 0
  %or.cond = select i1 %cmp5, i1 true, i1 %cmp6
  br i1 %or.cond, label %if.end8, label %for.inc

if.end8:                                          ; preds = %if.end
  store i64 %i.035, ptr %highest_cluster, align 8
  %cmp9.not = icmp eq i64 %4, %call4
  br i1 %cmp9.not, label %for.inc, label %if.then10

if.then10:                                        ; preds = %if.end8
  %cmp11 = icmp eq i64 %4, 0
  br i1 %cmp11, label %if.then12, label %if.else

if.then12:                                        ; preds = %if.then10
  store i8 1, ptr %rebuild, align 1
  br label %if.end23

if.else:                                          ; preds = %if.then10
  %cmp13 = icmp ule i64 %4, %call4
  %or.cond29 = or i1 %tobool.not, %cmp13
  br i1 %or.cond29, label %if.else15, label %if.end23

if.else15:                                        ; preds = %if.else
  %cmp16 = icmp uge i64 %4, %call4
  %or.cond30 = or i1 %tobool19.not, %cmp16
  %spec.select = select i1 %or.cond30, ptr null, ptr %corruptions_fixed
  br label %if.end23

if.end23:                                         ; preds = %if.else15, %if.else, %if.then12
  %num_fixed.0 = phi ptr [ null, %if.then12 ], [ %leaks_fixed, %if.else ], [ %spec.select, %if.else15 ]
  %5 = load ptr, ptr @stderr, align 8
  %cmp24.not = icmp eq ptr %num_fixed.0, null
  %cmp25 = icmp ult i64 %4, %call4
  %cond = select i1 %cmp25, ptr @.str.72, ptr @.str.87
  %cond26 = select i1 %cmp24.not, ptr %cond, ptr @.str.71
  %call27 = tail call i32 (ptr, ptr, ...) @fprintf(ptr noundef %5, ptr noundef nonnull @.str.86, ptr noundef nonnull %cond26, i64 noundef %i.035, i64 noundef %4, i64 noundef %call4) #19
  br i1 %cmp24.not, label %if.end37, label %if.then29

if.then29:                                        ; preds = %if.end23
  %6 = load i32, ptr %0, align 8
  %sh_prom = zext nneg i32 %6 to i64
  %shl = shl i64 %i.035, %sh_prom
  %cmp.i = icmp ugt i64 %4, %call4
  %sub.i = sub nuw i64 %4, %call4
  %sub1.i = sub nuw i64 %call4, %4
  %cond.i = select i1 %cmp.i, i64 %sub.i, i64 %sub1.i
  %call32 = tail call fastcc i32 @update_refcount(ptr noundef %bs, i64 noundef %shl, i64 noundef 1, i64 noundef %cond.i, i1 noundef zeroext %cmp.i, i32 noundef 1)
  %cmp33 = icmp sgt i32 %call32, -1
  br i1 %cmp33, label %if.then34, label %if.end37

if.then34:                                        ; preds = %if.then29
  %7 = load i32, ptr %num_fixed.0, align 4
  %inc35 = add i32 %7, 1
  store i32 %inc35, ptr %num_fixed.0, align 4
  br label %for.inc

if.end37:                                         ; preds = %if.then29, %if.end23
  br i1 %cmp25, label %if.then39, label %if.else41

if.then39:                                        ; preds = %if.end37
  %8 = load i32, ptr %res, align 8
  %inc40 = add i32 %8, 1
  store i32 %inc40, ptr %res, align 8
  br label %for.inc

if.else41:                                        ; preds = %if.end37
  %9 = load i32, ptr %leaks, align 4
  %inc42 = add i32 %9, 1
  store i32 %inc42, ptr %leaks, align 4
  br label %for.inc

for.inc:                                          ; preds = %if.end, %if.end8, %if.else41, %if.then39, %if.then34, %if.then
  %inc45 = add nuw nsw i64 %i.035, 1
  %exitcond.not = icmp eq i64 %inc45, %nb_clusters
  br i1 %exitcond.not, label %for.end, label %for.body, !llvm.loop !28

for.end:                                          ; preds = %for.inc, %entry
  ret void
}